target datalayout = "e-m:e-p270:32:32-p271:32:32-p272:64:64-i64:64-i128:128-f80:128-n8:16:32:64-S128"
target triple = "x86_64-pc-linux-gnu"

%struct.archive_write = type { %struct.archive, i32, i64, i64, ptr, i64, ptr, ptr, ptr, ptr, ptr, i32, i32, ptr, ptr, ptr, ptr, ptr, ptr, ptr, ptr, ptr, ptr, ptr, ptr, ptr, ptr }
%struct.archive = type { i32, i32, ptr, i32, ptr, i32, i32, ptr, %struct.archive_string, ptr, i32, i32, ptr, ptr, i64, i64, i64, i8, i64 }
%struct.archive_string = type { ptr, i64, i64 }

@.str = private unnamed_addr constant [27 x i8] c"Can't allocate gnutar data\00", align 1
@.str.1 = private unnamed_addr constant [7 x i8] c"gnutar\00", align 1
@.str.2 = private unnamed_addr constant [8 x i8] c"GNU tar\00", align 1

; Function Attrs: nounwind uwtable
define dso_local i32 @archive_write_set_format_gnutar(ptr noundef %0) #0 {
  %2 = alloca i32, align 4
  %3 = alloca ptr, align 8
  %4 = alloca ptr, align 8
  %5 = alloca ptr, align 8
  store ptr %0, ptr %3, align 8
  %6 = load ptr, ptr %3, align 8
  store ptr %6, ptr %4, align 8
  %7 = call noalias ptr @calloc(i64 noundef 1, i64 noundef 104) #7
  store ptr %7, ptr %5, align 8
  %8 = load ptr, ptr %5, align 8
  %9 = icmp eq ptr %8, null
  br i1 %9, label %10, label %13

10:                                               ; preds = %1
  %11 = load ptr, ptr %4, align 8
  %12 = getelementptr inbounds %struct.archive_write, ptr %11, i32 0, i32 0
  call void (ptr, i32, ptr, ...) @archive_set_error(ptr noundef %12, i32 noundef 12, ptr noundef @.str)
  store i32 -30, ptr %2, align 4
  br label %37

13:                                               ; preds = %1
  %14 = load ptr, ptr %5, align 8
  %15 = load ptr, ptr %4, align 8
  %16 = getelementptr inbounds %struct.archive_write, ptr %15, i32 0, i32 15
  store ptr %14, ptr %16, align 8
  %17 = load ptr, ptr %4, align 8
  %18 = getelementptr inbounds %struct.archive_write, ptr %17, i32 0, i32 16
  store ptr @.str.1, ptr %18, align 8
  %19 = load ptr, ptr %4, align 8
  %20 = getelementptr inbounds %struct.archive_write, ptr %19, i32 0, i32 18
  store ptr @archive_write_gnutar_options, ptr %20, align 8
  %21 = load ptr, ptr %4, align 8
  %22 = getelementptr inbounds %struct.archive_write, ptr %21, i32 0, i32 20
  store ptr @archive_write_gnutar_header, ptr %22, align 8
  %23 = load ptr, ptr %4, align 8
  %24 = getelementptr inbounds %struct.archive_write, ptr %23, i32 0, i32 21
  store ptr @archive_write_gnutar_data, ptr %24, align 8
  %25 = load ptr, ptr %4, align 8
  %26 = getelementptr inbounds %struct.archive_write, ptr %25, i32 0, i32 22
  store ptr @archive_write_gnutar_close, ptr %26, align 8
  %27 = load ptr, ptr %4, align 8
  %28 = getelementptr inbounds %struct.archive_write, ptr %27, i32 0, i32 23
  store ptr @archive_write_gnutar_free, ptr %28, align 8
  %29 = load ptr, ptr %4, align 8
  %30 = getelementptr inbounds %struct.archive_write, ptr %29, i32 0, i32 19
  store ptr @archive_write_gnutar_finish_entry, ptr %30, align 8
  %31 = load ptr, ptr %4, align 8
  %32 = getelementptr inbounds %struct.archive_write, ptr %31, i32 0, i32 0
  %33 = getelementptr inbounds %struct.archive, ptr %32, i32 0, i32 3
  store i32 196612, ptr %33, align 8
  %34 = load ptr, ptr %4, align 8
  %35 = getelementptr inbounds %struct.archive_write, ptr %34, i32 0, i32 0
  %36 = getelementptr inbounds %struct.archive, ptr %35, i32 0, i32 4
  store ptr @.str.2, ptr %36, align 8
  store i32 0, ptr %2, align 4
  br label %37

37:                                               ; preds = %13, %10
  %38 = load i32, ptr %2, align 4
  ret i32 %38
}