; Function Attrs: nounwind uwtable
define dso_local range(i32 -30, 1) i32 @archive_write_set_format_gnutar(ptr noundef %0) local_unnamed_addr #0 {
  %2 = tail call noalias dereferenceable_or_null(104) ptr @calloc(i64 noundef 1, i64 noundef 104) #10
  %3 = icmp eq ptr %2, null
  br i1 %3, label %4, label %5

4:                                                ; preds = %1
  tail call void (ptr, i32, ptr, ...) @archive_set_error(ptr noundef %0, i32 noundef 12, ptr noundef nonnull @.str) #11
  br label %16

5:                                                ; preds = %1
  %6 = getelementptr inbounds nuw i8, ptr %0, i64 248
  store ptr %2, ptr %6, align 8
  %7 = getelementptr inbounds nuw i8, ptr %0, i64 256
  store ptr @.str.1, ptr %7, align 8
  %8 = getelementptr inbounds nuw i8, ptr %0, i64 272
  store ptr @archive_write_gnutar_options, ptr %8, align 8
  %9 = getelementptr inbounds nuw i8, ptr %0, i64 288
  store ptr @archive_write_gnutar_header, ptr %9, align 8
  %10 = getelementptr inbounds nuw i8, ptr %0, i64 296
  store ptr @archive_write_gnutar_data, ptr %10, align 8
  %11 = getelementptr inbounds nuw i8, ptr %0, i64 304
  store ptr @archive_write_gnutar_close, ptr %11, align 8
  %12 = getelementptr inbounds nuw i8, ptr %0, i64 312
  store ptr @archive_write_gnutar_free, ptr %12, align 8
  %13 = getelementptr inbounds nuw i8, ptr %0, i64 280
  store ptr @archive_write_gnutar_finish_entry, ptr %13, align 8
  %14 = getelementptr inbounds nuw i8, ptr %0, i64 16
  store i32 196612, ptr %14, align 8
  %15 = getelementptr inbounds nuw i8, ptr %0, i64 24
  store ptr @.str.2, ptr %15, align 8
  br label %16

16:                                               ; preds = %5, %4
  %.0 = phi i32 [ -30, %4 ], [ 0, %5 ]
  ret i32 %.0
}